target datalayout = "e-m:e-p270:32:32-p271:32:32-p272:64:64-i64:64-i128:128-f80:128-n8:16:32:64-S128"
target triple = "x86_64-pc-linux-gnu"

%struct.Aes = type { [60 x i32], i32, i32, [8 x i8], [4 x i32], [4 x i32], [2 x i32], i32, [4 x i8], %struct.Gcm, ptr, [8 x i8] }
%struct.Gcm = type { [16 x i8], [32 x [16 x i8]] }

; Function Attrs: inlinehint nounwind uwtable
define internal void @ForceZero(ptr noundef %0, i32 noundef %1) #4 {
  %3 = alloca ptr, align 8
  %4 = alloca i32, align 4
  %5 = alloca ptr, align 8
  %6 = alloca ptr, align 8
  %7 = alloca i32, align 4
  store ptr %0, ptr %3, align 8, !tbaa !18
  store i32 %1, ptr %4, align 4, !tbaa !10
  call void @llvm.lifetime.start.p0(i64 8, ptr %5) #6
  %8 = load ptr, ptr %3, align 8, !tbaa !18
  store ptr %8, ptr %5, align 8, !tbaa !8
  call void @llvm.lifetime.start.p0(i64 8, ptr %6) #6
  call void @llvm.lifetime.start.p0(i64 4, ptr %7) #6
  %9 = load ptr, ptr %5, align 8, !tbaa !8
  %10 = ptrtoint ptr %9 to i64
  %11 = and i64 %10, 7
  %12 = sub i64 8, %11
  %13 = and i64 %12, 7
  %14 = trunc i64 %13 to i32
  store i32 %14, ptr %7, align 4, !tbaa !10
  %15 = load i32, ptr %4, align 4, !tbaa !10
  %16 = load i32, ptr %7, align 4, !tbaa !10
  %17 = icmp ult i32 %15, %16
  br i1 %17, label %18, label %20

18:                                               ; preds = %2
  %19 = load i32, ptr %4, align 4, !tbaa !10
  store i32 %19, ptr %7, align 4, !tbaa !10
  br label %20

20:                                               ; preds = %18, %2
  %21 = load i32, ptr %7, align 4, !tbaa !10
  %22 = load i32, ptr %4, align 4, !tbaa !10
  %23 = sub i32 %22, %21
  store i32 %23, ptr %4, align 4, !tbaa !10
  br label %24

24:                                               ; preds = %28, %20
  %25 = load i32, ptr %7, align 4, !tbaa !10
  %26 = add i32 %25, -1
  store i32 %26, ptr %7, align 4, !tbaa !10
  %27 = icmp ne i32 %25, 0
  br i1 %27, label %28, label %31

28:                                               ; preds = %24
  %29 = load ptr, ptr %5, align 8, !tbaa !8
  %30 = getelementptr inbounds nuw i8, ptr %29, i32 1
  store ptr %30, ptr %5, align 8, !tbaa !8
  store volatile i8 0, ptr %29, align 1, !tbaa !19
  br label %24, !llvm.loop !50

31:                                               ; preds = %24
  %32 = load ptr, ptr %5, align 8, !tbaa !8
  store ptr %32, ptr %6, align 8, !tbaa !30
  br label %33

33:                                               ; preds = %40, %31
  %34 = load i32, ptr %4, align 4, !tbaa !10
  %35 = zext i32 %34 to i64
  %36 = icmp uge i64 %35, 8
  br i1 %36, label %37, label %43

37:                                               ; preds = %33
  %38 = load ptr, ptr %6, align 8, !tbaa !30
  %39 = getelementptr inbounds nuw i64, ptr %38, i32 1
  store ptr %39, ptr %6, align 8, !tbaa !30
  store volatile i64 0, ptr %38, align 8, !tbaa !32
  br label %40

40:                                               ; preds = %37
  %41 = load i32, ptr %4, align 4, !tbaa !10
  %42 = sub i32 %41, 8
  store i32 %42, ptr %4, align 4, !tbaa !10
  br label %33, !llvm.loop !51

43:                                               ; preds = %33
  %44 = load ptr, ptr %6, align 8, !tbaa !30
  store ptr %44, ptr %5, align 8, !tbaa !8
  br label %45

45:                                               ; preds = %49, %43
  %46 = load i32, ptr %4, align 4, !tbaa !10
  %47 = add i32 %46, -1
  store i32 %47, ptr %4, align 4, !tbaa !10
  %48 = icmp ne i32 %46, 0
  br i1 %48, label %49, label %52

49:                                               ; preds = %45
  %50 = load ptr, ptr %5, align 8, !tbaa !8
  %51 = getelementptr inbounds nuw i8, ptr %50, i32 1
  store ptr %51, ptr %5, align 8, !tbaa !8
  store volatile i8 0, ptr %50, align 1, !tbaa !19
  br label %45, !llvm.loop !52

52:                                               ; preds = %45
  call void @llvm.lifetime.end.p0(i64 4, ptr %7) #6
  call void @llvm.lifetime.end.p0(i64 8, ptr %6) #6
  call void @llvm.lifetime.end.p0(i64 8, ptr %5) #6
  ret void
}

; Function Attrs: nounwind uwtable
define void @wc_AesFree(ptr noundef %0) #0 {
  %2 = alloca ptr, align 8
  store ptr %0, ptr %2, align 8, !tbaa !3
  %3 = load ptr, ptr %2, align 8, !tbaa !3
  %4 = icmp eq ptr %3, null
  br i1 %4, label %5, label %6

5:                                                ; preds = %1
  br label %8

6:                                                ; preds = %1
  %7 = load ptr, ptr %2, align 8, !tbaa !3
  call void @ForceZero(ptr noundef %7, i32 noundef 848)
  br label %8

8:                                                ; preds = %6, %5
  ret void
}

; Function Attrs: nounwind uwtable
define i32 @wc_AesGcmSetKey(ptr noundef %0, ptr noundef %1, i32 noundef %2) #0 {
  %4 = alloca i32, align 4
  %5 = alloca ptr, align 8
  %6 = alloca ptr, align 8
  %7 = alloca i32, align 4
  %8 = alloca i32, align 4
  %9 = alloca [16 x i8], align 16
  %10 = alloca i32, align 4
  store ptr %0, ptr %5, align 8, !tbaa !3
  store ptr %1, ptr %6, align 8, !tbaa !8
  store i32 %2, ptr %7, align 4, !tbaa !10
  call void @llvm.lifetime.start.p0(i64 4, ptr %8) #6
  call void @llvm.lifetime.start.p0(i64 16, ptr %9) #6
  %11 = load i32, ptr %7, align 4, !tbaa !10
  %12 = icmp eq i32 %11, 16
  br i1 %12, label %20, label %13

13:                                               ; preds = %3
  %14 = load i32, ptr %7, align 4, !tbaa !10
  %15 = icmp eq i32 %14, 24
  br i1 %15, label %20, label %16

16:                                               ; preds = %13
  %17 = load i32, ptr %7, align 4, !tbaa !10
  %18 = icmp eq i32 %17, 32
  br i1 %18, label %20, label %19

19:                                               ; preds = %16
  store i32 -173, ptr %4, align 4
  store i32 1, ptr %10, align 4
  br label %58

20:                                               ; preds = %16, %13, %3
  %21 = load ptr, ptr %5, align 8, !tbaa !3
  %22 = icmp eq ptr %21, null
  br i1 %22, label %26, label %23

23:                                               ; preds = %20
  %24 = load ptr, ptr %6, align 8, !tbaa !8
  %25 = icmp eq ptr %24, null
  br i1 %25, label %26, label %27

26:                                               ; preds = %23, %20
  store i32 -173, ptr %4, align 4
  store i32 1, ptr %10, align 4
  br label %58

27:                                               ; preds = %23
  %28 = getelementptr inbounds [16 x i8], ptr %9, i64 0, i64 0
  call void @llvm.memset.p0.i64(ptr align 16 %28, i8 0, i64 16, i1 false)
  %29 = load ptr, ptr %5, align 8, !tbaa !3
  %30 = load ptr, ptr %6, align 8, !tbaa !8
  %31 = load i32, ptr %7, align 4, !tbaa !10
  %32 = getelementptr inbounds [16 x i8], ptr %9, i64 0, i64 0
  %33 = call i32 @wc_AesSetKey(ptr noundef %29, ptr noundef %30, i32 noundef %31, ptr noundef %32, i32 noundef 0)
  store i32 %33, ptr %8, align 4, !tbaa !10
  %34 = load i32, ptr %8, align 4, !tbaa !10
  %35 = icmp eq i32 %34, 0
  br i1 %35, label %36, label %50

36:                                               ; preds = %27
  br label %37

37:                                               ; preds = %36
  br label %38

38:                                               ; preds = %37
  br label %39

39:                                               ; preds = %38
  %40 = load ptr, ptr %5, align 8, !tbaa !3
  %41 = getelementptr inbounds [16 x i8], ptr %9, i64 0, i64 0
  %42 = load ptr, ptr %5, align 8, !tbaa !3
  %43 = getelementptr inbounds nuw %struct.Aes, ptr %42, i32 0, i32 9
  %44 = getelementptr inbounds nuw %struct.Gcm, ptr %43, i32 0, i32 0
  %45 = getelementptr inbounds [16 x i8], ptr %44, i64 0, i64 0
  %46 = call i32 @wc_AesEncrypt(ptr noundef %40, ptr noundef %41, ptr noundef %45)
  store i32 %46, ptr %8, align 4, !tbaa !10
  br label %47

47:                                               ; preds = %39
  br label %48

48:                                               ; preds = %47
  br label %49

49:                                               ; preds = %48
  br label %50

50:                                               ; preds = %49, %27
  %51 = load i32, ptr %8, align 4, !tbaa !10
  %52 = icmp eq i32 %51, 0
  br i1 %52, label %53, label %56

53:                                               ; preds = %50
  %54 = load ptr, ptr %5, align 8, !tbaa !3
  %55 = getelementptr inbounds nuw %struct.Aes, ptr %54, i32 0, i32 9
  call void @GenerateM0(ptr noundef %55)
  br label %56

56:                                               ; preds = %53, %50
  %57 = load i32, ptr %8, align 4, !tbaa !10
  store i32 %57, ptr %4, align 4
  store i32 1, ptr %10, align 4
  br label %58

58:                                               ; preds = %56, %26, %19
  call void @llvm.lifetime.end.p0(i64 16, ptr %9) #6
  call void @llvm.lifetime.end.p0(i64 4, ptr %8) #6
  %59 = load i32, ptr %4, align 4
  ret i32 %59
}

; Function Attrs: nounwind uwtable
define i32 @wc_AesInit(ptr noundef %0, ptr noundef %1, i32 noundef %2) #0 {
  %4 = alloca i32, align 4
  %5 = alloca ptr, align 8
  %6 = alloca ptr, align 8
  %7 = alloca i32, align 4
  %8 = alloca i32, align 4
  %9 = alloca i32, align 4
  store ptr %0, ptr %5, align 8, !tbaa !3
  store ptr %1, ptr %6, align 8, !tbaa !18
  store i32 %2, ptr %7, align 4, !tbaa !10
  call void @llvm.lifetime.start.p0(i64 4, ptr %8) #6
  store i32 0, ptr %8, align 4, !tbaa !10
  %10 = load ptr, ptr %5, align 8, !tbaa !3
  %11 = icmp eq ptr %10, null
  br i1 %11, label %12, label %13

12:                                               ; preds = %3
  store i32 -173, ptr %4, align 4
  store i32 1, ptr %9, align 4
  br label %19

13:                                               ; preds = %3
  %14 = load ptr, ptr %5, align 8, !tbaa !3
  call void @llvm.memset.p0.i64(ptr align 16 %14, i8 0, i64 848, i1 false)
  %15 = load ptr, ptr %6, align 8, !tbaa !18
  %16 = load ptr, ptr %5, align 8, !tbaa !3
  %17 = getelementptr inbounds nuw %struct.Aes, ptr %16, i32 0, i32 10
  store ptr %15, ptr %17, align 16, !tbaa !43
  %18 = load i32, ptr %8, align 4, !tbaa !10
  store i32 %18, ptr %4, align 4
  store i32 1, ptr %9, align 4
  br label %19

19:                                               ; preds = %13, %12
  call void @llvm.lifetime.end.p0(i64 4, ptr %8) #6
  %20 = load i32, ptr %4, align 4
  ret i32 %20
}

; Function Attrs: nounwind uwtable
define i32 @wc_GmacVerify(ptr noundef %0, i32 noundef %1, ptr noundef %2, i32 noundef %3, ptr noundef %4, i32 noundef %5, ptr noundef %6, i32 noundef %7) #0 {
  %9 = alloca i32, align 4
  %10 = alloca ptr, align 8
  %11 = alloca i32, align 4
  %12 = alloca ptr, align 8
  %13 = alloca i32, align 4
  %14 = alloca ptr, align 8
  %15 = alloca i32, align 4
  %16 = alloca ptr, align 8
  %17 = alloca i32, align 4
  %18 = alloca i32, align 4
  %19 = alloca [1 x %struct.Aes], align 16
  %20 = alloca i32, align 4
  store ptr %0, ptr %10, align 8, !tbaa !8
  store i32 %1, ptr %11, align 4, !tbaa !10
  store ptr %2, ptr %12, align 8, !tbaa !8
  store i32 %3, ptr %13, align 4, !tbaa !10
  store ptr %4, ptr %14, align 8, !tbaa !8
  store i32 %5, ptr %15, align 4, !tbaa !10
  store ptr %6, ptr %16, align 8, !tbaa !8
  store i32 %7, ptr %17, align 4, !tbaa !10
  call void @llvm.lifetime.start.p0(i64 4, ptr %18) #6
  call void @llvm.lifetime.start.p0(i64 848, ptr %19) #6
  %21 = load ptr, ptr %10, align 8, !tbaa !8
  %22 = icmp eq ptr %21, null
  br i1 %22, label %41, label %23

23:                                               ; preds = %8
  %24 = load ptr, ptr %12, align 8, !tbaa !8
  %25 = icmp eq ptr %24, null
  br i1 %25, label %41, label %26

26:                                               ; preds = %23
  %27 = load ptr, ptr %14, align 8, !tbaa !8
  %28 = icmp eq ptr %27, null
  br i1 %28, label %29, label %32

29:                                               ; preds = %26
  %30 = load i32, ptr %15, align 4, !tbaa !10
  %31 = icmp ne i32 %30, 0
  br i1 %31, label %41, label %32

32:                                               ; preds = %29, %26
  %33 = load ptr, ptr %16, align 8, !tbaa !8
  %34 = icmp eq ptr %33, null
  br i1 %34, label %41, label %35

35:                                               ; preds = %32
  %36 = load i32, ptr %17, align 4, !tbaa !10
  %37 = icmp eq i32 %36, 0
  br i1 %37, label %41, label %38

38:                                               ; preds = %35
  %39 = load i32, ptr %17, align 4, !tbaa !10
  %40 = icmp ugt i32 %39, 16
  br i1 %40, label %41, label %42

41:                                               ; preds = %38, %35, %32, %29, %23, %8
  store i32 -173, ptr %9, align 4
  store i32 1, ptr %20, align 4
  br label %67

42:                                               ; preds = %38
  %43 = getelementptr inbounds [1 x %struct.Aes], ptr %19, i64 0, i64 0
  %44 = call i32 @wc_AesInit(ptr noundef %43, ptr noundef null, i32 noundef -2)
  store i32 %44, ptr %18, align 4, !tbaa !10
  %45 = load i32, ptr %18, align 4, !tbaa !10
  %46 = icmp eq i32 %45, 0
  br i1 %46, label %47, label %64

47:                                               ; preds = %42
  %48 = getelementptr inbounds [1 x %struct.Aes], ptr %19, i64 0, i64 0
  %49 = load ptr, ptr %10, align 8, !tbaa !8
  %50 = load i32, ptr %11, align 4, !tbaa !10
  %51 = call i32 @wc_AesGcmSetKey(ptr noundef %48, ptr noundef %49, i32 noundef %50)
  store i32 %51, ptr %18, align 4, !tbaa !10
  %52 = load i32, ptr %18, align 4, !tbaa !10
  %53 = icmp eq i32 %52, 0
  br i1 %53, label %54, label %63

54:                                               ; preds = %47
  %55 = getelementptr inbounds [1 x %struct.Aes], ptr %19, i64 0, i64 0
  %56 = load ptr, ptr %12, align 8, !tbaa !8
  %57 = load i32, ptr %13, align 4, !tbaa !10
  %58 = load ptr, ptr %16, align 8, !tbaa !8
  %59 = load i32, ptr %17, align 4, !tbaa !10
  %60 = load ptr, ptr %14, align 8, !tbaa !8
  %61 = load i32, ptr %15, align 4, !tbaa !10
  %62 = call i32 @wc_AesGcmDecrypt(ptr noundef %55, ptr noundef null, ptr noundef null, i32 noundef 0, ptr noundef %56, i32 noundef %57, ptr noundef %58, i32 noundef %59, ptr noundef %60, i32 noundef %61)
  store i32 %62, ptr %18, align 4, !tbaa !10
  br label %63

63:                                               ; preds = %54, %47
  br label %64

64:                                               ; preds = %63, %42
  %65 = getelementptr inbounds [1 x %struct.Aes], ptr %19, i64 0, i64 0
  call void @wc_AesFree(ptr noundef %65)
  %66 = load i32, ptr %18, align 4, !tbaa !10
  store i32 %66, ptr %9, align 4
  store i32 1, ptr %20, align 4
  br label %67

67:                                               ; preds = %64, %41
  call void @llvm.lifetime.end.p0(i64 848, ptr %19) #6
  call void @llvm.lifetime.end.p0(i64 4, ptr %18) #6
  %68 = load i32, ptr %9, align 4
  ret i32 %68
}