; Function Attrs: nofree norecurse nounwind uwtable
define range(i32 -226, 1) i32 @wc_GmacVerify(ptr noundef readonly captures(address_is_null) %0, i32 noundef %1, ptr noundef %2, i32 noundef %3, ptr noundef %4, i32 noundef %5, ptr noundef captures(address_is_null) %6, i32 noundef %7) local_unnamed_addr #10 {
  %9 = alloca [16 x i8], align 16
  %10 = alloca [1 x %struct.Aes], align 16
  call void @llvm.lifetime.start.p0(i64 848, ptr nonnull %10) #12
  %11 = icmp eq ptr %0, null
  %12 = icmp eq ptr %2, null
  %or.cond = or i1 %11, %12
  br i1 %or.cond, label %wc_AesFree.exit, label %13

13:                                               ; preds = %8
  %14 = icmp eq ptr %4, null
  %15 = icmp ne i32 %5, 0
  %or.cond3 = and i1 %14, %15
  %16 = icmp eq ptr %6, null
  %or.cond5 = or i1 %or.cond3, %16
  %17 = add i32 %7, -17
  %18 = icmp ult i32 %17, -16
  %or.cond9 = or i1 %or.cond5, %18
  br i1 %or.cond9, label %wc_AesFree.exit, label %19

19:                                               ; preds = %13
  call void @llvm.memset.p0.i64(ptr noundef nonnull align 16 dereferenceable(848) %10, i8 0, i64 848, i1 false)
  call void @llvm.lifetime.start.p0(i64 16, ptr nonnull %9) #12
  switch i32 %1, label %wc_AesGcmSetKey.exit.thread [
    i32 32, label %20
    i32 24, label %20
    i32 16, label %20
  ]

20:                                               ; preds = %19, %19, %19
  call void @llvm.memset.p0.i64(ptr noundef nonnull align 16 dereferenceable(16) %9, i8 0, i64 16, i1 false)
  %21 = call i32 @wc_AesSetKey(ptr noundef nonnull %10, ptr noundef nonnull readonly %0, i32 noundef %1, ptr noundef nonnull %9, i32 noundef 0)
  %22 = icmp eq i32 %21, 0
  br i1 %22, label %23, label %wc_AesGcmSetKey.exit.thread

23:                                               ; preds = %20
  %24 = getelementptr inbounds nuw i8, ptr %10, i64 304
  %25 = call fastcc i32 @wc_AesEncrypt(ptr noundef nonnull %10, ptr noundef %9, ptr noundef %24)
  %26 = icmp eq i32 %25, 0
  br i1 %26, label %27, label %wc_AesGcmSetKey.exit.thread

wc_AesGcmSetKey.exit.thread:                      ; preds = %19, %23, %20
  %.019.i.ph = phi i32 [ %21, %20 ], [ %25, %23 ], [ -173, %19 ]
  call void @llvm.lifetime.end.p0(i64 16, ptr nonnull %9) #12
  br label %.preheader23.i.i

27:                                               ; preds = %23
  call void @GenerateM0(ptr noundef nonnull %24)
  call void @llvm.lifetime.end.p0(i64 16, ptr nonnull %9) #12
  %28 = call i32 @wc_AesGcmDecrypt(ptr noundef nonnull %10, ptr noundef null, ptr noundef null, i32 noundef 0, ptr noundef nonnull %2, i32 noundef %3, ptr noundef nonnull %6, i32 noundef %7, ptr noundef %4, i32 noundef %5)
  br label %.preheader23.i.i

.preheader23.i.i:                                 ; preds = %27, %wc_AesGcmSetKey.exit.thread
  %.0 = phi i32 [ %28, %27 ], [ %.019.i.ph, %wc_AesGcmSetKey.exit.thread ]
  br label %.lr.ph29.i.i

.lr.ph29.i.i:                                     ; preds = %.lr.ph29.i.i, %.preheader23.i.i
  %.01528.i.i = phi ptr [ %29, %.lr.ph29.i.i ], [ %10, %.preheader23.i.i ]
  %.01827.i.i = phi i32 [ %30, %.lr.ph29.i.i ], [ 848, %.preheader23.i.i ]
  %29 = getelementptr inbounds nuw i8, ptr %.01528.i.i, i64 8
  store volatile i64 0, ptr %.01528.i.i, align 8, !tbaa !21
  %30 = add nsw i32 %.01827.i.i, -8
  %.not = icmp eq i32 %30, 0
  br i1 %.not, label %wc_AesFree.exit, label %.lr.ph29.i.i, !llvm.loop !44

wc_AesFree.exit:                                  ; preds = %.lr.ph29.i.i, %8, %13
  %.027 = phi i32 [ -173, %13 ], [ -173, %8 ], [ %.0, %.lr.ph29.i.i ]
  call void @llvm.lifetime.end.p0(i64 848, ptr nonnull %10) #12
  ret i32 %.027
}